target datalayout = "e-m:e-p270:32:32-p271:32:32-p272:64:64-i64:64-i128:128-f80:128-n8:16:32:64-S128"
target triple = "x86_64-pc-linux-gnu"

%class.QString = type { %struct.QArrayDataPointer }
%struct.QArrayDataPointer = type { ptr, ptr, i64 }
%class.QColor = type <{ i32, %"union.QColor::CT", [2 x i8] }>
%"union.QColor::CT" = type { %struct.anon }
%struct.anon = type { i16, i16, i16, i16, i16 }
%class.ColoringRuleItem = type { %class.ModelHelperTreeItem, i8, %class.QString, %class.QString, %class.QColor, %class.QColor }
%class.ModelHelperTreeItem = type { ptr, ptr, %class.QList }
%class.QList = type { %struct.QArrayDataPointer.4 }
%struct.QArrayDataPointer.4 = type { ptr, ptr, i64 }
%struct.color_t = type { i16, i16, i16 }
%struct._color_filter = type { ptr, ptr, %struct.color_t, %struct.color_t, i32, ptr }
%class.QByteArrayView = type { i64, ptr }

@_ZTV16ColoringRuleItem = unnamed_addr constant { [4 x ptr] } { [4 x ptr] [ptr null, ptr @_ZTI16ColoringRuleItem, ptr @_ZN16ColoringRuleItemD1Ev, ptr @_ZN16ColoringRuleItemD0Ev] }, align 8

; Function Attrs: mustprogress nounwind uwtable
define linkonce_odr void @_ZSt4swapIxENSt9enable_ifIXsr6__and_ISt6__not_ISt15__is_tuple_likeIT_EESt21is_move_constructibleIS3_ESt18is_move_assignableIS3_EEE5valueEvE4typeERS3_SC_(ptr noundef nonnull align 8 dereferenceable(8) %0, ptr noundef nonnull align 8 dereferenceable(8) %1) #1 comdat {
  %3 = alloca ptr, align 8
  %4 = alloca ptr, align 8
  %5 = alloca i64, align 8
  store ptr %0, ptr %3, align 8
  store ptr %1, ptr %4, align 8
  %6 = load ptr, ptr %3, align 8
  %7 = load i64, ptr %6, align 8
  store i64 %7, ptr %5, align 8
  %8 = load ptr, ptr %4, align 8
  %9 = load i64, ptr %8, align 8
  %10 = load ptr, ptr %3, align 8
  store i64 %9, ptr %10, align 8
  %11 = load i64, ptr %5, align 8
  %12 = load ptr, ptr %4, align 8
  store i64 %11, ptr %12, align 8
  ret void
}

; Function Attrs: mustprogress nounwind uwtable
define linkonce_odr void @_Z11qt_ptr_swapIDsEvRPT_S2_(ptr noundef nonnull align 8 dereferenceable(8) %0, ptr noundef nonnull align 8 dereferenceable(8) %1) #1 comdat {
  %3 = alloca ptr, align 8
  %4 = alloca ptr, align 8
  %5 = alloca ptr, align 8
  store ptr %0, ptr %3, align 8
  store ptr %1, ptr %4, align 8
  %6 = load ptr, ptr %3, align 8
  %7 = load ptr, ptr %6, align 8
  store ptr %7, ptr %5, align 8
  %8 = load ptr, ptr %4, align 8
  %9 = load ptr, ptr %8, align 8
  %10 = load ptr, ptr %3, align 8
  store ptr %9, ptr %10, align 8
  %11 = load ptr, ptr %5, align 8
  %12 = load ptr, ptr %4, align 8
  store ptr %11, ptr %12, align 8
  ret void
}

; Function Attrs: mustprogress nounwind uwtable
define linkonce_odr void @_Z11qt_ptr_swapI15QTypedArrayDataIDsEEvRPT_S4_(ptr noundef nonnull align 8 dereferenceable(8) %0, ptr noundef nonnull align 8 dereferenceable(8) %1) #1 comdat {
  %3 = alloca ptr, align 8
  %4 = alloca ptr, align 8
  %5 = alloca ptr, align 8
  store ptr %0, ptr %3, align 8
  store ptr %1, ptr %4, align 8
  %6 = load ptr, ptr %3, align 8
  %7 = load ptr, ptr %6, align 8
  store ptr %7, ptr %5, align 8
  %8 = load ptr, ptr %4, align 8
  %9 = load ptr, ptr %8, align 8
  %10 = load ptr, ptr %3, align 8
  store ptr %9, ptr %10, align 8
  %11 = load ptr, ptr %5, align 8
  %12 = load ptr, ptr %4, align 8
  store ptr %11, ptr %12, align 8
  ret void
}

; Function Attrs: mustprogress nounwind uwtable
define linkonce_odr void @_ZN17QArrayDataPointerIDsE4swapERS0_(ptr noundef nonnull align 8 dereferenceable(24) %0, ptr noundef nonnull align 8 dereferenceable(24) %1) #1 comdat align 2 {
  %3 = alloca ptr, align 8
  %4 = alloca ptr, align 8
  store ptr %0, ptr %3, align 8
  store ptr %1, ptr %4, align 8
  %5 = load ptr, ptr %3, align 8
  %6 = getelementptr inbounds %struct.QArrayDataPointer, ptr %5, i32 0, i32 0
  %7 = load ptr, ptr %4, align 8
  %8 = getelementptr inbounds %struct.QArrayDataPointer, ptr %7, i32 0, i32 0
  call void @_Z11qt_ptr_swapI15QTypedArrayDataIDsEEvRPT_S4_(ptr noundef nonnull align 8 dereferenceable(8) %6, ptr noundef nonnull align 8 dereferenceable(8) %8) #13
  %9 = getelementptr inbounds %struct.QArrayDataPointer, ptr %5, i32 0, i32 1
  %10 = load ptr, ptr %4, align 8
  %11 = getelementptr inbounds %struct.QArrayDataPointer, ptr %10, i32 0, i32 1
  call void @_Z11qt_ptr_swapIDsEvRPT_S2_(ptr noundef nonnull align 8 dereferenceable(8) %9, ptr noundef nonnull align 8 dereferenceable(8) %11) #13
  %12 = getelementptr inbounds %struct.QArrayDataPointer, ptr %5, i32 0, i32 2
  %13 = load ptr, ptr %4, align 8
  %14 = getelementptr inbounds %struct.QArrayDataPointer, ptr %13, i32 0, i32 2
  call void @_ZSt4swapIxENSt9enable_ifIXsr6__and_ISt6__not_ISt15__is_tuple_likeIT_EESt21is_move_constructibleIS3_ESt18is_move_assignableIS3_EEE5valueEvE4typeERS3_SC_(ptr noundef nonnull align 8 dereferenceable(8) %12, ptr noundef nonnull align 8 dereferenceable(8) %14) #13
  ret void
}

; Function Attrs: mustprogress nounwind uwtable
define linkonce_odr noundef ptr @_ZN14QByteArrayView10castHelperEPKc(ptr noundef %0) #1 comdat align 2 {
  %2 = alloca ptr, align 8
  store ptr %0, ptr %2, align 8
  %3 = load ptr, ptr %2, align 8
  ret ptr %3
}

; Function Attrs: mustprogress nounwind uwtable
define linkonce_odr noundef i64 @_ZNSt11char_traitsIcE6lengthEPKc(ptr noundef %0) #1 comdat align 2 {
  %2 = alloca ptr, align 8
  store ptr %0, ptr %2, align 8
  %3 = load ptr, ptr %2, align 8
  %4 = call i64 @strlen(ptr noundef %3) #13
  ret i64 %4
}

; Function Attrs: mustprogress nounwind uwtable
define linkonce_odr void @_Z5qSwapIDsEvR17QArrayDataPointerIT_ES3_(ptr noundef nonnull align 8 dereferenceable(24) %0, ptr noundef nonnull align 8 dereferenceable(24) %1) #1 comdat {
  %3 = alloca ptr, align 8
  %4 = alloca ptr, align 8
  store ptr %0, ptr %3, align 8
  store ptr %1, ptr %4, align 8
  %5 = load ptr, ptr %3, align 8
  %6 = load ptr, ptr %4, align 8
  call void @_ZN17QArrayDataPointerIDsE4swapERS0_(ptr noundef nonnull align 8 dereferenceable(24) %5, ptr noundef nonnull align 8 dereferenceable(24) %6) #13
  ret void
}

; Function Attrs: mustprogress nounwind uwtable
define linkonce_odr void @_ZN17QArrayDataPointerIDsEC2Ev(ptr noundef nonnull align 8 dereferenceable(24) %0) unnamed_addr #1 comdat align 2 {
  %2 = alloca ptr, align 8
  store ptr %0, ptr %2, align 8
  %3 = load ptr, ptr %2, align 8
  %4 = getelementptr inbounds %struct.QArrayDataPointer, ptr %3, i32 0, i32 0
  store ptr null, ptr %4, align 8
  %5 = getelementptr inbounds %struct.QArrayDataPointer, ptr %3, i32 0, i32 1
  store ptr null, ptr %5, align 8
  %6 = getelementptr inbounds %struct.QArrayDataPointer, ptr %3, i32 0, i32 2
  store i64 0, ptr %6, align 8
  ret void
}

; Function Attrs: noreturn nounwind uwtable
define linkonce_odr hidden void @__clang_call_terminate(ptr noundef %0) #7 comdat {
  %2 = call ptr @__cxa_begin_catch(ptr %0) #13
  call void @_ZSt9terminatev() #17
  unreachable
}

; Function Attrs: mustprogress nounwind uwtable
define linkonce_odr void @_ZN14QByteArrayViewC2IcTnNSt9enable_ifIXsr9QtPrivate20IsCompatibleByteTypeIT_EE5valueEbE4typeELb1EEEPKS2_x(ptr noundef nonnull align 8 dereferenceable(16) %0, ptr noundef %1, i64 noundef %2) unnamed_addr #1 comdat align 2 {
  %4 = alloca ptr, align 8
  %5 = alloca ptr, align 8
  %6 = alloca i64, align 8
  store ptr %0, ptr %4, align 8
  store ptr %1, ptr %5, align 8
  store i64 %2, ptr %6, align 8
  %7 = load ptr, ptr %4, align 8
  %8 = getelementptr inbounds %class.QByteArrayView, ptr %7, i32 0, i32 0
  %9 = load i64, ptr %6, align 8
  store i64 %9, ptr %8, align 8
  %10 = getelementptr inbounds %class.QByteArrayView, ptr %7, i32 0, i32 1
  %11 = load ptr, ptr %5, align 8
  %12 = call noundef ptr @_ZN14QByteArrayView10castHelperEPKc(ptr noundef %11) #13
  store ptr %12, ptr %10, align 8
  ret void
}

; Function Attrs: mustprogress nounwind uwtable
define linkonce_odr noundef i64 @_ZN14QByteArrayView19lengthHelperPointerIcEExPKT_(ptr noundef %0) #1 comdat align 2 personality ptr @__gxx_personality_v0 {
  %2 = alloca ptr, align 8
  store ptr %0, ptr %2, align 8
  %3 = load ptr, ptr %2, align 8
  %4 = invoke noundef i64 @_ZNSt11char_traitsIcE6lengthEPKc(ptr noundef %3)
          to label %5 unwind label %6

5:                                                ; preds = %1
  ret i64 %4

6:                                                ; preds = %1
  %7 = landingpad { ptr, i32 }
          catch ptr null
  %8 = extractvalue { ptr, i32 } %7, 0
  call void @__clang_call_terminate(ptr %8) #17
  unreachable
}

; Function Attrs: mustprogress nounwind uwtable
define linkonce_odr void @_ZN17QArrayDataPointerI8QVariantEC2Ev(ptr noundef nonnull align 8 dereferenceable(24) %0) unnamed_addr #1 comdat align 2 {
  %2 = alloca ptr, align 8
  store ptr %0, ptr %2, align 8
  %3 = load ptr, ptr %2, align 8
  %4 = getelementptr inbounds %struct.QArrayDataPointer.4, ptr %3, i32 0, i32 0
  store ptr null, ptr %4, align 8
  %5 = getelementptr inbounds %struct.QArrayDataPointer.4, ptr %3, i32 0, i32 1
  store ptr null, ptr %5, align 8
  %6 = getelementptr inbounds %struct.QArrayDataPointer.4, ptr %3, i32 0, i32 2
  store i64 0, ptr %6, align 8
  ret void
}

; Function Attrs: mustprogress nounwind uwtable
define linkonce_odr void @_ZN7QStringC2EOS_(ptr noundef nonnull align 8 dereferenceable(24) %0, ptr noundef nonnull align 8 dereferenceable(24) %1) unnamed_addr #1 comdat align 2 {
  %3 = alloca ptr, align 8
  %4 = alloca ptr, align 8
  store ptr %0, ptr %3, align 8
  store ptr %1, ptr %4, align 8
  %5 = load ptr, ptr %3, align 8
  %6 = getelementptr inbounds %class.QString, ptr %5, i32 0, i32 0
  call void @_ZN17QArrayDataPointerIDsEC2Ev(ptr noundef nonnull align 8 dereferenceable(24) %6) #13
  %7 = getelementptr inbounds %class.QString, ptr %5, i32 0, i32 0
  %8 = load ptr, ptr %4, align 8
  %9 = getelementptr inbounds %class.QString, ptr %8, i32 0, i32 0
  call void @_Z5qSwapIDsEvR17QArrayDataPointerIT_ES3_(ptr noundef nonnull align 8 dereferenceable(24) %7, ptr noundef nonnull align 8 dereferenceable(24) %9) #13
  ret void
}

; Function Attrs: mustprogress nounwind uwtable
define linkonce_odr void @_ZN14QByteArrayViewC2IPKcTnNSt9enable_ifIXsr9QtPrivate28IsCompatibleByteArrayPointerIT_EE5valueEbE4typeELb1EEERKS4_(ptr noundef nonnull align 8 dereferenceable(16) %0, ptr noundef nonnull align 8 dereferenceable(8) %1) unnamed_addr #1 comdat align 2 personality ptr @__gxx_personality_v0 {
  %3 = alloca ptr, align 8
  %4 = alloca ptr, align 8
  store ptr %0, ptr %3, align 8
  store ptr %1, ptr %4, align 8
  %5 = load ptr, ptr %3, align 8
  %6 = load ptr, ptr %4, align 8
  %7 = load ptr, ptr %6, align 8
  %8 = load ptr, ptr %4, align 8
  %9 = load ptr, ptr %8, align 8
  %10 = icmp ne ptr %9, null
  br i1 %10, label %11, label %15

11:                                               ; preds = %2
  %12 = load ptr, ptr %4, align 8
  %13 = load ptr, ptr %12, align 8
  %14 = call noundef i64 @_ZN14QByteArrayView19lengthHelperPointerIcEExPKT_(ptr noundef %13) #13
  br label %16

15:                                               ; preds = %2
  br label %16

16:                                               ; preds = %15, %11
  %17 = phi i64 [ %14, %11 ], [ 0, %15 ]
  invoke void @_ZN14QByteArrayViewC2IcTnNSt9enable_ifIXsr9QtPrivate20IsCompatibleByteTypeIT_EE5valueEbE4typeELb1EEEPKS2_x(ptr noundef nonnull align 8 dereferenceable(16) %5, ptr noundef %7, i64 noundef %17)
          to label %18 unwind label %19

18:                                               ; preds = %16
  ret void

19:                                               ; preds = %16
  %20 = landingpad { ptr, i32 }
          catch ptr null
  %21 = extractvalue { ptr, i32 } %20, 0
  call void @__clang_call_terminate(ptr %21) #17
  unreachable
}

; Function Attrs: mustprogress nounwind uwtable
define linkonce_odr void @_ZN5QListI8QVariantEC2Ev(ptr noundef nonnull align 8 dereferenceable(24) %0) unnamed_addr #1 comdat align 2 {
  %2 = alloca ptr, align 8
  store ptr %0, ptr %2, align 8
  %3 = load ptr, ptr %2, align 8
  %4 = getelementptr inbounds %class.QList, ptr %3, i32 0, i32 0
  call void @_ZN17QArrayDataPointerI8QVariantEC2Ev(ptr noundef nonnull align 8 dereferenceable(24) %4) #13
  ret void
}

; Function Attrs: mustprogress uwtable
define linkonce_odr void @_ZN7QStringC2EPKc(ptr noundef nonnull align 8 dereferenceable(24) %0, ptr noundef %1) unnamed_addr #0 comdat align 2 {
  %3 = alloca ptr, align 8
  %4 = alloca ptr, align 8
  %5 = alloca %class.QString, align 8
  %6 = alloca %class.QByteArrayView, align 8
  store ptr %0, ptr %3, align 8
  store ptr %1, ptr %4, align 8
  %7 = load ptr, ptr %3, align 8
  call void @_ZN14QByteArrayViewC2IPKcTnNSt9enable_ifIXsr9QtPrivate28IsCompatibleByteArrayPointerIT_EE5valueEbE4typeELb1EEERKS4_(ptr noundef nonnull align 8 dereferenceable(16) %6, ptr noundef nonnull align 8 dereferenceable(8) %4) #13
  %8 = getelementptr inbounds { i64, ptr }, ptr %6, i32 0, i32 0
  %9 = load i64, ptr %8, align 8
  %10 = getelementptr inbounds { i64, ptr }, ptr %6, i32 0, i32 1
  %11 = load ptr, ptr %10, align 8
  call void @_ZN7QString8fromUtf8E14QByteArrayView(ptr dead_on_unwind writable sret(%class.QString) align 8 %5, i64 %9, ptr %11)
  call void @_ZN7QStringC2EOS_(ptr noundef nonnull align 8 dereferenceable(24) %7, ptr noundef nonnull align 8 dereferenceable(24) %5) #13
  call void @_ZN7QStringD2Ev(ptr noundef nonnull align 8 dereferenceable(24) %5) #13
  ret void
}

; Function Attrs: mustprogress nounwind uwtable
define linkonce_odr void @_ZN19ModelHelperTreeItemI16ColoringRuleItemEC2EPS0_(ptr noundef nonnull align 8 dereferenceable(40) %0, ptr noundef %1) unnamed_addr #1 comdat align 2 {
  %3 = alloca ptr, align 8
  %4 = alloca ptr, align 8
  store ptr %0, ptr %3, align 8
  store ptr %1, ptr %4, align 8
  %5 = load ptr, ptr %3, align 8
  store ptr getelementptr inbounds ({ [4 x ptr] }, ptr @_ZTV19ModelHelperTreeItemI16ColoringRuleItemE, i32 0, i32 0, i32 2), ptr %5, align 8
  %6 = getelementptr inbounds %class.ModelHelperTreeItem, ptr %5, i32 0, i32 1
  %7 = load ptr, ptr %4, align 8
  store ptr %7, ptr %6, align 8
  %8 = getelementptr inbounds %class.ModelHelperTreeItem, ptr %5, i32 0, i32 2
  call void @_ZN5QListI8QVariantEC2Ev(ptr noundef nonnull align 8 dereferenceable(24) %8) #13
  ret void
}

; Function Attrs: mustprogress uwtable
define void @_ZN16ColoringRuleItemC2EP13_color_filterPS_(ptr noundef nonnull align 8 dereferenceable(128) %0, ptr noundef %1, ptr noundef %2) unnamed_addr #0 align 2 personality ptr @__gxx_personality_v0 {
  %4 = alloca ptr, align 8
  %5 = alloca ptr, align 8
  %6 = alloca ptr, align 8
  %7 = alloca ptr, align 8
  %8 = alloca i32, align 4
  %9 = alloca %struct.color_t, align 2
  %10 = alloca i48, align 8
  %11 = alloca %struct.color_t, align 2
  %12 = alloca i48, align 8
  store ptr %0, ptr %4, align 8
  store ptr %1, ptr %5, align 8
  store ptr %2, ptr %6, align 8
  %13 = load ptr, ptr %4, align 8
  %14 = load ptr, ptr %6, align 8
  call void @_ZN19ModelHelperTreeItemI16ColoringRuleItemEC2EPS0_(ptr noundef nonnull align 8 dereferenceable(40) %13, ptr noundef %14)
  store ptr getelementptr inbounds ({ [4 x ptr] }, ptr @_ZTV16ColoringRuleItem, i32 0, i32 0, i32 2), ptr %13, align 8
  %15 = getelementptr inbounds %class.ColoringRuleItem, ptr %13, i32 0, i32 1
  %16 = load ptr, ptr %5, align 8
  %17 = getelementptr inbounds %struct._color_filter, ptr %16, i32 0, i32 4
  %18 = load i32, ptr %17, align 4
  %19 = icmp ne i32 %18, 0
  %20 = zext i1 %19 to i8
  store i8 %20, ptr %15, align 8
  %21 = getelementptr inbounds %class.ColoringRuleItem, ptr %13, i32 0, i32 2
  %22 = load ptr, ptr %5, align 8
  %23 = getelementptr inbounds %struct._color_filter, ptr %22, i32 0, i32 0
  %24 = load ptr, ptr %23, align 8
  invoke void @_ZN7QStringC2EPKc(ptr noundef nonnull align 8 dereferenceable(24) %21, ptr noundef %24)
          to label %25 unwind label %51

25:                                               ; preds = %3
  %26 = getelementptr inbounds %class.ColoringRuleItem, ptr %13, i32 0, i32 3
  %27 = load ptr, ptr %5, align 8
  %28 = getelementptr inbounds %struct._color_filter, ptr %27, i32 0, i32 1
  %29 = load ptr, ptr %28, align 8
  invoke void @_ZN7QStringC2EPKc(ptr noundef nonnull align 8 dereferenceable(24) %26, ptr noundef %29)
          to label %30 unwind label %55

30:                                               ; preds = %25
  %31 = getelementptr inbounds %class.ColoringRuleItem, ptr %13, i32 0, i32 4
  %32 = load ptr, ptr %5, align 8
  %33 = getelementptr inbounds %struct._color_filter, ptr %32, i32 0, i32 3
  call void @llvm.memcpy.p0.p0.i64(ptr align 2 %9, ptr align 2 %33, i64 6, i1 false)
  call void @llvm.memcpy.p0.p0.i64(ptr align 8 %10, ptr align 2 %9, i64 6, i1 false)
  %34 = load i48, ptr %10, align 8
  %35 = invoke { i64, i64 } @_ZN10ColorUtils10fromColorTE7color_t(i48 %34)
          to label %36 unwind label %59

36:                                               ; preds = %30
  %37 = getelementptr inbounds { i64, i64 }, ptr %31, i32 0, i32 0
  %38 = extractvalue { i64, i64 } %35, 0
  store i64 %38, ptr %37, align 8
  %39 = getelementptr inbounds { i64, i64 }, ptr %31, i32 0, i32 1
  %40 = extractvalue { i64, i64 } %35, 1
  store i64 %40, ptr %39, align 8
  %41 = getelementptr inbounds %class.ColoringRuleItem, ptr %13, i32 0, i32 5
  %42 = load ptr, ptr %5, align 8
  %43 = getelementptr inbounds %struct._color_filter, ptr %42, i32 0, i32 2
  call void @llvm.memcpy.p0.p0.i64(ptr align 2 %11, ptr align 8 %43, i64 6, i1 false)
  call void @llvm.memcpy.p0.p0.i64(ptr align 8 %12, ptr align 2 %11, i64 6, i1 false)
  %44 = load i48, ptr %12, align 8
  %45 = invoke { i64, i64 } @_ZN10ColorUtils10fromColorTE7color_t(i48 %44)
          to label %46 unwind label %59

46:                                               ; preds = %36
  %47 = getelementptr inbounds { i64, i64 }, ptr %41, i32 0, i32 0
  %48 = extractvalue { i64, i64 } %45, 0
  store i64 %48, ptr %47, align 8
  %49 = getelementptr inbounds { i64, i64 }, ptr %41, i32 0, i32 1
  %50 = extractvalue { i64, i64 } %45, 1
  store i64 %50, ptr %49, align 8
  ret void

51:                                               ; preds = %3
  %52 = landingpad { ptr, i32 }
          cleanup
  %53 = extractvalue { ptr, i32 } %52, 0
  store ptr %53, ptr %7, align 8
  %54 = extractvalue { ptr, i32 } %52, 1
  store i32 %54, ptr %8, align 4
  br label %64

55:                                               ; preds = %25
  %56 = landingpad { ptr, i32 }
          cleanup
  %57 = extractvalue { ptr, i32 } %56, 0
  store ptr %57, ptr %7, align 8
  %58 = extractvalue { ptr, i32 } %56, 1
  store i32 %58, ptr %8, align 4
  br label %63

59:                                               ; preds = %36, %30
  %60 = landingpad { ptr, i32 }
          cleanup
  %61 = extractvalue { ptr, i32 } %60, 0
  store ptr %61, ptr %7, align 8
  %62 = extractvalue { ptr, i32 } %60, 1
  store i32 %62, ptr %8, align 4
  call void @_ZN7QStringD2Ev(ptr noundef nonnull align 8 dereferenceable(24) %26) #13
  br label %63

63:                                               ; preds = %59, %55
  call void @_ZN7QStringD2Ev(ptr noundef nonnull align 8 dereferenceable(24) %21) #13
  br label %64

64:                                               ; preds = %63, %51
  call void @_ZN19ModelHelperTreeItemI16ColoringRuleItemED2Ev(ptr noundef nonnull align 8 dereferenceable(40) %13) #13
  br label %65

65:                                               ; preds = %64
  %66 = load ptr, ptr %7, align 8
  %67 = load i32, ptr %8, align 4
  %68 = insertvalue { ptr, i32 } poison, ptr %66, 0
  %69 = insertvalue { ptr, i32 } %68, i32 %67, 1
  resume { ptr, i32 } %69
}