; Function Attrs: mustprogress uwtable
define void @_ZN16ColoringRuleItemC2EP13_color_filterPS_(ptr noundef nonnull align 8 dereferenceable(128) %0, ptr nocapture noundef readonly %1, ptr noundef %2) unnamed_addr #4 align 2 personality ptr @__gxx_personality_v0 {
  %4 = alloca %class.QString, align 16
  %5 = alloca %class.QString, align 16
  %6 = getelementptr inbounds i8, ptr %0, i64 8
  store ptr %2, ptr %6, align 8
  %7 = getelementptr inbounds i8, ptr %0, i64 16
  tail call void @llvm.memset.p0.i64(ptr noundef nonnull align 8 dereferenceable(24) %7, i8 0, i64 24, i1 false)
  store ptr getelementptr inbounds ({ [4 x ptr] }, ptr @_ZTV16ColoringRuleItem, i64 0, i32 0, i64 2), ptr %0, align 8
  %8 = getelementptr inbounds i8, ptr %0, i64 40
  %9 = getelementptr inbounds i8, ptr %1, i64 28
  %10 = load i32, ptr %9, align 4
  %11 = icmp ne i32 %10, 0
  %12 = zext i1 %11 to i8
  store i8 %12, ptr %8, align 8
  %13 = getelementptr inbounds i8, ptr %0, i64 48
  %14 = load ptr, ptr %1, align 8
  call void @llvm.lifetime.start.p0(i64 24, ptr nonnull %5)
  %.not.i.i = icmp eq ptr %14, null
  br i1 %.not.i.i, label %_ZN7QStringD2Ev.exit.i, label %.split.i.i

.split.i.i:                                       ; preds = %3
  %15 = tail call noundef i64 @strlen(ptr noundef nonnull dereferenceable(1) %14) #18
  br label %_ZN7QStringD2Ev.exit.i

_ZN7QStringD2Ev.exit.i:                           ; preds = %.split.i.i, %3
  %.sink5.i.i = phi i64 [ %15, %.split.i.i ], [ 0, %3 ]
  invoke void @_ZN7QString8fromUtf8E14QByteArrayView(ptr dead_on_unwind nonnull writable sret(%class.QString) align 8 %5, i64 %.sink5.i.i, ptr %14)
          to label %16 unwind label %44

16:                                               ; preds = %_ZN7QStringD2Ev.exit.i
  %17 = load <2 x ptr>, ptr %5, align 16
  store <2 x ptr> %17, ptr %13, align 8
  %18 = getelementptr inbounds i8, ptr %0, i64 64
  %19 = getelementptr inbounds i8, ptr %5, i64 16
  %20 = load i64, ptr %19, align 16
  store i64 %20, ptr %18, align 8
  call void @llvm.lifetime.end.p0(i64 24, ptr nonnull %5)
  %21 = getelementptr inbounds i8, ptr %0, i64 72
  %22 = getelementptr inbounds i8, ptr %1, i64 8
  %23 = load ptr, ptr %22, align 8
  call void @llvm.lifetime.start.p0(i64 24, ptr nonnull %4)
  %.not.i.i15 = icmp eq ptr %23, null
  br i1 %.not.i.i15, label %_ZN7QStringD2Ev.exit.i17, label %.split.i.i16

.split.i.i16:                                     ; preds = %16
  %24 = call noundef i64 @strlen(ptr noundef nonnull dereferenceable(1) %23) #18
  br label %_ZN7QStringD2Ev.exit.i17

_ZN7QStringD2Ev.exit.i17:                         ; preds = %.split.i.i16, %16
  %.sink5.i.i18 = phi i64 [ %24, %.split.i.i16 ], [ 0, %16 ]
  invoke void @_ZN7QString8fromUtf8E14QByteArrayView(ptr dead_on_unwind nonnull writable sret(%class.QString) align 8 %4, i64 %.sink5.i.i18, ptr %23)
          to label %25 unwind label %46

25:                                               ; preds = %_ZN7QStringD2Ev.exit.i17
  %26 = load <2 x ptr>, ptr %4, align 16
  store <2 x ptr> %26, ptr %21, align 8
  %27 = getelementptr inbounds i8, ptr %0, i64 88
  %28 = getelementptr inbounds i8, ptr %4, i64 16
  %29 = load i64, ptr %28, align 16
  store i64 %29, ptr %27, align 8
  call void @llvm.lifetime.end.p0(i64 24, ptr nonnull %4)
  %30 = getelementptr inbounds i8, ptr %1, i64 22
  %.sroa.02.0.copyload = load i48, ptr %30, align 2
  %31 = invoke { i64, i64 } @_ZN10ColorUtils10fromColorTE7color_t(i48 %.sroa.02.0.copyload)
          to label %32 unwind label %48

32:                                               ; preds = %25
  %33 = getelementptr inbounds i8, ptr %0, i64 96
  %34 = extractvalue { i64, i64 } %31, 0
  store i64 %34, ptr %33, align 8
  %35 = getelementptr inbounds i8, ptr %0, i64 104
  %36 = extractvalue { i64, i64 } %31, 1
  store i64 %36, ptr %35, align 8
  %37 = getelementptr inbounds i8, ptr %1, i64 16
  %.sroa.0.0.copyload = load i48, ptr %37, align 8
  %38 = invoke { i64, i64 } @_ZN10ColorUtils10fromColorTE7color_t(i48 %.sroa.0.0.copyload)
          to label %39 unwind label %48

39:                                               ; preds = %32
  %40 = getelementptr inbounds i8, ptr %0, i64 112
  %41 = extractvalue { i64, i64 } %38, 0
  store i64 %41, ptr %40, align 8
  %42 = getelementptr inbounds i8, ptr %0, i64 120
  %43 = extractvalue { i64, i64 } %38, 1
  store i64 %43, ptr %42, align 8
  ret void

44:                                               ; preds = %_ZN7QStringD2Ev.exit.i
  %45 = landingpad { ptr, i32 }
          cleanup
  br label %51

46:                                               ; preds = %_ZN7QStringD2Ev.exit.i17
  %47 = landingpad { ptr, i32 }
          cleanup
  br label %50

48:                                               ; preds = %32, %25
  %49 = landingpad { ptr, i32 }
          cleanup
  call void @_ZN7QStringD2Ev(ptr noundef nonnull align 8 dereferenceable(24) %21) #18
  br label %50

50:                                               ; preds = %48, %46
  %.pn = phi { ptr, i32 } [ %49, %48 ], [ %47, %46 ]
  call void @_ZN7QStringD2Ev(ptr noundef nonnull align 8 dereferenceable(24) %13) #18
  br label %51

51:                                               ; preds = %50, %44
  %.pn.pn = phi { ptr, i32 } [ %.pn, %50 ], [ %45, %44 ]
  call void @_ZN19ModelHelperTreeItemI16ColoringRuleItemED2Ev(ptr noundef nonnull align 8 dereferenceable(40) %0) #18
  resume { ptr, i32 } %.pn.pn
}